target datalayout = "e-m:e-p270:32:32-p271:32:32-p272:64:64-i64:64-i128:128-f80:128-n8:16:32:64-S128"
target triple = "x86_64-pc-linux-gnu"

%struct.CVodeMemRec = type { double, ptr, ptr, i32, i32, i32, double, double, ptr, i32, ptr, ptr, i32, ptr, i32, i32, double, double, ptr, i32, i32, i32, ptr, ptr, ptr, i32, i32, ptr, ptr, ptr, i32, double, i32, i32, double, ptr, ptr, i32, ptr, ptr, i32, i32, i32, double, ptr, ptr, [13 x ptr], ptr, ptr, ptr, ptr, ptr, [13 x ptr], ptr, ptr, ptr, ptr, [13 x ptr], ptr, ptr, ptr, ptr, ptr, i32, [13 x ptr], ptr, ptr, ptr, ptr, ptr, i32, double, i32, i32, i32, i32, i32, double, double, double, double, double, double, double, double, [14 x double], [6 x double], [13 x double], double, double, double, double, double, double, double, double, double, double, double, i32, ptr, i32, i64, i32, i32, i32, i32, i32, double, double, double, i64, i64, i64, i64, i64, i64, i64, i64, i64, ptr, i64, i64, ptr, i64, i64, i64, i64, i64, i64, i32, i64, i64, i64, i64, i64, i64, double, double, double, ptr, ptr, ptr, ptr, ptr, i32, i32, i64, double, double, double, i32, double, i32, i32, i32, i32, i32, i32, i32, i32, i32, i32, i32, i32, i32, i32, i32, i32, ptr, ptr, ptr, i32, [6 x [4 x double]], i32, i64, ptr, i32, ptr, ptr, double, double, double, ptr, ptr, ptr, double, double, i32, i32, i64, ptr, i32, i32, ptr, i32 }
%struct.CVadjMemRec = type { double, double, i32, i32, double, ptr, i32, ptr, i32, ptr, i32, ptr, i64, ptr, i64, i32, ptr, ptr, ptr, ptr, i32, i32, i32, i32, [13 x ptr], [13 x ptr], [13 x double], ptr, ptr, i64 }
%struct.DtpntMemRec = type { double, ptr }
%struct.PolynomialDataMemRec = type { ptr, ptr, i32 }

@.str = private unnamed_addr constant [7 x i8] c"CVODEA\00", align 1
@.str.2 = private unnamed_addr constant [26 x i8] c"cvode_mem = NULL illegal.\00", align 1
@.str.3 = private unnamed_addr constant [55 x i8] c"Illegal attempt to call before calling CVodeAdjMalloc.\00", align 1
@.str.18 = private unnamed_addr constant [62 x i8] c"This function cannot be called for the specified interp type.\00", align 1
@.str.19 = private unnamed_addr constant [31 x i8] c"CVodeGetAdjDataPointPolynomial\00", align 1
@.str.20 = private unnamed_addr constant [28 x i8] c"CVadjGetDataPointPolynomial\00", align 1

; Function Attrs: nounwind uwtable
define i32 @CVodeGetAdjDataPointPolynomial(ptr noundef %0, i32 noundef %1, ptr noundef %2, ptr noundef %3, ptr noundef %4) #0 {
  %6 = alloca i32, align 4
  %7 = alloca ptr, align 8
  %8 = alloca i32, align 4
  %9 = alloca ptr, align 8
  %10 = alloca ptr, align 8
  %11 = alloca ptr, align 8
  %12 = alloca ptr, align 8
  %13 = alloca ptr, align 8
  %14 = alloca ptr, align 8
  %15 = alloca ptr, align 8
  %16 = alloca i32, align 4
  store ptr %0, ptr %7, align 8, !tbaa !3
  store i32 %1, ptr %8, align 4, !tbaa !28
  store ptr %2, ptr %9, align 8, !tbaa !68
  store ptr %3, ptr %10, align 8, !tbaa !83
  store ptr %4, ptr %11, align 8, !tbaa !69
  call void @llvm.lifetime.start.p0(i64 8, ptr %12) #3
  call void @llvm.lifetime.start.p0(i64 8, ptr %13) #3
  call void @llvm.lifetime.start.p0(i64 8, ptr %14) #3
  call void @llvm.lifetime.start.p0(i64 8, ptr %15) #3
  %17 = load ptr, ptr %7, align 8, !tbaa !3
  %18 = icmp eq ptr %17, null
  br i1 %18, label %19, label %20

19:                                               ; preds = %5
  call void (ptr, i32, ptr, ptr, ptr, ...) @cvProcessError(ptr noundef null, i32 noundef -21, ptr noundef @.str, ptr noundef @.str.19, ptr noundef @.str.2)
  store i32 -21, ptr %6, align 4
  store i32 1, ptr %16, align 4
  br label %69

20:                                               ; preds = %5
  %21 = load ptr, ptr %7, align 8, !tbaa !3
  store ptr %21, ptr %12, align 8, !tbaa !7
  %22 = load ptr, ptr %12, align 8, !tbaa !7
  %23 = getelementptr inbounds nuw %struct.CVodeMemRec, ptr %22, i32 0, i32 195
  %24 = load i32, ptr %23, align 8, !tbaa !9
  %25 = icmp eq i32 %24, 0
  br i1 %25, label %26, label %28

26:                                               ; preds = %20
  %27 = load ptr, ptr %12, align 8, !tbaa !7
  call void (ptr, i32, ptr, ptr, ptr, ...) @cvProcessError(ptr noundef %27, i32 noundef -101, ptr noundef @.str, ptr noundef @.str.19, ptr noundef @.str.3)
  store i32 -101, ptr %6, align 4
  store i32 1, ptr %16, align 4
  br label %69

28:                                               ; preds = %20
  %29 = load ptr, ptr %12, align 8, !tbaa !7
  %30 = getelementptr inbounds nuw %struct.CVodeMemRec, ptr %29, i32 0, i32 194
  %31 = load ptr, ptr %30, align 8, !tbaa !21
  store ptr %31, ptr %13, align 8, !tbaa !22
  %32 = load ptr, ptr %13, align 8, !tbaa !22
  %33 = getelementptr inbounds nuw %struct.CVadjMemRec, ptr %32, i32 0, i32 13
  %34 = load ptr, ptr %33, align 8, !tbaa !70
  store ptr %34, ptr %14, align 8, !tbaa !71
  %35 = load ptr, ptr %13, align 8, !tbaa !22
  %36 = getelementptr inbounds nuw %struct.CVadjMemRec, ptr %35, i32 0, i32 15
  %37 = load i32, ptr %36, align 8, !tbaa !72
  %38 = icmp ne i32 %37, 2
  br i1 %38, label %39, label %41

39:                                               ; preds = %28
  %40 = load ptr, ptr %12, align 8, !tbaa !7
  call void (ptr, i32, ptr, ptr, ptr, ...) @cvProcessError(ptr noundef %40, i32 noundef -22, ptr noundef @.str, ptr noundef @.str.20, ptr noundef @.str.18)
  store i32 -22, ptr %6, align 4
  store i32 1, ptr %16, align 4
  br label %69

41:                                               ; preds = %28
  %42 = load ptr, ptr %14, align 8, !tbaa !71
  %43 = load i32, ptr %8, align 4, !tbaa !28
  %44 = sext i32 %43 to i64
  %45 = getelementptr inbounds ptr, ptr %42, i64 %44
  %46 = load ptr, ptr %45, align 8, !tbaa !73
  %47 = getelementptr inbounds nuw %struct.DtpntMemRec, ptr %46, i32 0, i32 0
  %48 = load double, ptr %47, align 8, !tbaa !75
  %49 = load ptr, ptr %9, align 8, !tbaa !68
  store double %48, ptr %49, align 8, !tbaa !44
  %50 = load ptr, ptr %14, align 8, !tbaa !71
  %51 = load i32, ptr %8, align 4, !tbaa !28
  %52 = sext i32 %51 to i64
  %53 = getelementptr inbounds ptr, ptr %50, i64 %52
  %54 = load ptr, ptr %53, align 8, !tbaa !73
  %55 = getelementptr inbounds nuw %struct.DtpntMemRec, ptr %54, i32 0, i32 1
  %56 = load ptr, ptr %55, align 8, !tbaa !77
  store ptr %56, ptr %15, align 8, !tbaa !84
  %57 = load ptr, ptr %11, align 8, !tbaa !69
  %58 = icmp ne ptr %57, null
  br i1 %58, label %59, label %64

59:                                               ; preds = %41
  %60 = load ptr, ptr %15, align 8, !tbaa !84
  %61 = getelementptr inbounds nuw %struct.PolynomialDataMemRec, ptr %60, i32 0, i32 0
  %62 = load ptr, ptr %61, align 8, !tbaa !86
  %63 = load ptr, ptr %11, align 8, !tbaa !69
  call void @N_VScale(double noundef 1.000000e+00, ptr noundef %62, ptr noundef %63)
  br label %64

64:                                               ; preds = %59, %41
  %65 = load ptr, ptr %15, align 8, !tbaa !84
  %66 = getelementptr inbounds nuw %struct.PolynomialDataMemRec, ptr %65, i32 0, i32 2
  %67 = load i32, ptr %66, align 8, !tbaa !88
  %68 = load ptr, ptr %10, align 8, !tbaa !83
  store i32 %67, ptr %68, align 4, !tbaa !28
  store i32 0, ptr %6, align 4
  store i32 1, ptr %16, align 4
  br label %69

69:                                               ; preds = %64, %39, %26, %19
  call void @llvm.lifetime.end.p0(i64 8, ptr %15) #3
  call void @llvm.lifetime.end.p0(i64 8, ptr %14) #3
  call void @llvm.lifetime.end.p0(i64 8, ptr %13) #3
  call void @llvm.lifetime.end.p0(i64 8, ptr %12) #3
  %70 = load i32, ptr %6, align 4
  ret i32 %70
}