; Function Attrs: nounwind uwtable
define range(i32 -101, 1) i32 @CVodeGetAdjDataPointPolynomial(ptr noundef %0, i32 noundef %1, ptr noundef writeonly captures(none) %2, ptr noundef writeonly captures(none) %3, ptr noundef %4) local_unnamed_addr #0 {
  %6 = icmp eq ptr %0, null
  br i1 %6, label %7, label %8

7:                                                ; preds = %5
  tail call void (ptr, i32, ptr, ptr, ptr, ...) @cvProcessError(ptr noundef null, i32 noundef -21, ptr noundef nonnull @.str, ptr noundef nonnull @.str.19, ptr noundef nonnull @.str.2) #2
  br label %33

8:                                                ; preds = %5
  %9 = getelementptr inbounds nuw i8, ptr %0, i64 2200
  %10 = load i32, ptr %9, align 8, !tbaa !3
  %11 = icmp eq i32 %10, 0
  br i1 %11, label %12, label %13

12:                                               ; preds = %8
  tail call void (ptr, i32, ptr, ptr, ptr, ...) @cvProcessError(ptr noundef nonnull %0, i32 noundef -101, ptr noundef nonnull @.str, ptr noundef nonnull @.str.19, ptr noundef nonnull @.str.3) #2
  br label %33

13:                                               ; preds = %8
  %14 = getelementptr inbounds nuw i8, ptr %0, i64 2192
  %15 = load ptr, ptr %14, align 8, !tbaa !18
  %16 = getelementptr inbounds nuw i8, ptr %15, i64 112
  %17 = load i32, ptr %16, align 8, !tbaa !50
  %.not = icmp eq i32 %17, 2
  br i1 %.not, label %19, label %18

18:                                               ; preds = %13
  tail call void (ptr, i32, ptr, ptr, ptr, ...) @cvProcessError(ptr noundef nonnull %0, i32 noundef -22, ptr noundef nonnull @.str, ptr noundef nonnull @.str.20, ptr noundef nonnull @.str.18) #2
  br label %33

19:                                               ; preds = %13
  %20 = getelementptr inbounds nuw i8, ptr %15, i64 96
  %21 = load ptr, ptr %20, align 8, !tbaa !51
  %22 = sext i32 %1 to i64
  %23 = getelementptr inbounds ptr, ptr %21, i64 %22
  %24 = load ptr, ptr %23, align 8, !tbaa !52
  %25 = load double, ptr %24, align 8, !tbaa !54
  store double %25, ptr %2, align 8, !tbaa !56
  %26 = getelementptr inbounds nuw i8, ptr %24, i64 8
  %27 = load ptr, ptr %26, align 8, !tbaa !57
  %.not20 = icmp eq ptr %4, null
  br i1 %.not20, label %30, label %28

28:                                               ; preds = %19
  %29 = load ptr, ptr %27, align 8, !tbaa !61
  tail call void @N_VScale(double noundef 1.000000e+00, ptr noundef %29, ptr noundef nonnull %4) #2
  br label %30

30:                                               ; preds = %28, %19
  %31 = getelementptr inbounds nuw i8, ptr %27, i64 16
  %32 = load i32, ptr %31, align 8, !tbaa !63
  store i32 %32, ptr %3, align 4, !tbaa !64
  br label %33

33:                                               ; preds = %30, %18, %12, %7
  %.0 = phi i32 [ -21, %7 ], [ -101, %12 ], [ -22, %18 ], [ 0, %30 ]
  ret i32 %.0
}